; Function Attrs: mustprogress uwtable
define hidden void @_ZNK4cvc58internal7printer4smt211Smt2Printer8toStreamERSoNS0_12NodeTemplateILb0EEEPKNS0_10LetBindingEb(ptr noundef nonnull readonly align 8 captures(none) dereferenceable(12) %0, ptr noundef nonnull align 8 dereferenceable(8) %1, ptr noundef readonly captures(none) %2, ptr noundef %3, i1 noundef zeroext %4) unnamed_addr #3 align 2 personality ptr @__gxx_personality_v0 {
  %6 = alloca %"class.cvc5::internal::NodeTemplate", align 8
  %7 = load ptr, ptr %1, align 8, !tbaa !40
  %8 = getelementptr i8, ptr %7, i64 -24
  %9 = load i64, ptr %8, align 8
  %10 = getelementptr inbounds i8, ptr %1, i64 %9
  %11 = tail call noundef i64 @_ZN4cvc58internal7options7ioutils12getNodeDepthERSt8ios_base(ptr noundef nonnull align 8 dereferenceable(216) %10)
  %12 = trunc i64 %11 to i32
  %13 = load ptr, ptr %2, align 8, !tbaa !3
  store ptr %13, ptr %6, align 8, !tbaa !3
  call void @_ZNK4cvc58internal7printer4smt211Smt2Printer8toStreamERSoNS0_12NodeTemplateILb0EEEPKNS0_10LetBindingEib(ptr noundef nonnull align 8 dereferenceable(12) %0, ptr noundef nonnull align 8 dereferenceable(8) %1, ptr noundef nonnull %6, ptr noundef %3, i32 noundef %12, i1 noundef zeroext %4)
  ret void
}